target datalayout = "e-m:e-p270:32:32-p271:32:32-p272:64:64-i64:64-i128:128-f80:128-n8:16:32:64-S128"
target triple = "x86_64-pc-linux-gnu"

%struct.__va_list_tag = type { i32, i32, ptr, ptr }

; Function Attrs: nounwind uwtable
define dso_local void @SDLTest_TextWindowAddText(ptr noundef %0, ptr noundef %1, ...) #0 {
  %3 = alloca ptr, align 8
  %4 = alloca ptr, align 8
  %5 = alloca [1024 x i8], align 16
  %6 = alloca [1 x %struct.__va_list_tag], align 16
  store ptr %0, ptr %3, align 8
  store ptr %1, ptr %4, align 8
  call void @llvm.lifetime.start.p0(i64 1024, ptr %5) #7
  call void @llvm.lifetime.start.p0(i64 24, ptr %6) #7
  %7 = getelementptr inbounds [1 x %struct.__va_list_tag], ptr %6, i64 0, i64 0
  call void @llvm.va_start.p0(ptr %7)
  %8 = getelementptr inbounds [1024 x i8], ptr %5, i64 0, i64 0
  %9 = load ptr, ptr %4, align 8
  %10 = getelementptr inbounds [1 x %struct.__va_list_tag], ptr %6, i64 0, i64 0
  %11 = call i32 @SDL_vsnprintf(ptr noundef %8, i64 noundef 1024, ptr noundef %9, ptr noundef %10)
  %12 = getelementptr inbounds [1 x %struct.__va_list_tag], ptr %6, i64 0, i64 0
  call void @llvm.va_end.p0(ptr %12)
  %13 = load ptr, ptr %3, align 8
  %14 = getelementptr inbounds [1024 x i8], ptr %5, i64 0, i64 0
  %15 = getelementptr inbounds [1024 x i8], ptr %5, i64 0, i64 0
  %16 = call i64 @SDL_strlen(ptr noundef %15)
  call void @SDLTest_TextWindowAddTextWithLength(ptr noundef %13, ptr noundef %14, i64 noundef %16)
  call void @llvm.lifetime.end.p0(i64 24, ptr %6) #7
  call void @llvm.lifetime.end.p0(i64 1024, ptr %5) #7
  ret void
}