; Function Attrs: nounwind uwtable
define dso_local void @SDLTest_TextWindowAddText(ptr noundef captures(none) %0, ptr noundef %1, ...) local_unnamed_addr #0 {
  %3 = alloca [1024 x i8], align 16
  %4 = alloca [1 x %struct.__va_list_tag], align 16
  call void @llvm.lifetime.start.p0(i64 1024, ptr nonnull %3) #8
  call void @llvm.lifetime.start.p0(i64 24, ptr nonnull %4) #8
  call void @llvm.va_start.p0(ptr nonnull %4)
  %5 = call i32 @SDL_vsnprintf(ptr noundef nonnull %3, i64 noundef 1024, ptr noundef %1, ptr noundef nonnull %4) #8
  call void @llvm.va_end.p0(ptr nonnull %4)
  %6 = call i64 @SDL_strlen(ptr noundef nonnull %3) #8
  call void @SDLTest_TextWindowAddTextWithLength(ptr noundef %0, ptr noundef nonnull %3, i64 noundef %6)
  call void @llvm.lifetime.end.p0(i64 24, ptr nonnull %4) #8
  call void @llvm.lifetime.end.p0(i64 1024, ptr nonnull %3) #8
  ret void
}